; Function Attrs: mustprogress uwtable
define internal noundef i32 @_ZN7mitsubaL24jpeg_empty_output_bufferEP20jpeg_compress_struct(ptr nocapture noundef readonly %0) #0 {
  %2 = getelementptr inbounds i8, ptr %0, i64 40
  %3 = load ptr, ptr %2, align 8
  %4 = getelementptr inbounds i8, ptr %3, i64 48
  %5 = load ptr, ptr %4, align 8
  %6 = getelementptr inbounds i8, ptr %3, i64 40
  %7 = load ptr, ptr %6, align 8
  %8 = load ptr, ptr %5, align 8
  %9 = getelementptr inbounds i8, ptr %8, i64 96
  %10 = load ptr, ptr %9, align 8
  tail call void %10(ptr noundef nonnull align 8 dereferenceable(16) %5, ptr noundef %7, i64 noundef 32768)
  %11 = load ptr, ptr %6, align 8
  store ptr %11, ptr %3, align 8
  %12 = getelementptr inbounds i8, ptr %3, i64 8
  store i64 32768, ptr %12, align 8
  ret i32 1
}